Certificate:
    Data:
        Version: 3 (0x2)
        Serial Number: 263 (0x107)
    Signature Algorithm: sha256WithRSAEncryption
        Issuer: C=CN, ST=Zhejiang, O=Global Aiziyuer CA Inc, OU=Aiziyuer CA, CN=Global Aiziyuer CA Inc/emailAddress=ziyu0123456789@gmail.com
        Validity
            Not Before: Jul 20 19:56:22 2019 GMT
            Not After : Jun 26 19:56:22 2119 GMT
        Subject: C=CN, ST=Zhejiang, O=Global Aiziyuer CA Inc, OU=Aiziyuer CA, CN=ziyu0123456789.cn/emailAddress=ziyu0123456789@gmail.com
        Subject Public Key Info:
            Public Key Algorithm: rsaEncryption
                Public-Key: (2048 bit)
                Modulus:
                    00:ea:ee:dd:95:fc:85:0c:0e:dc:bd:0e:3d:cb:8a:
                    3c:dc:97:d4:13:3d:0f:03:de:01:aa:0a:c0:2c:0d:
                    8d:c5:6a:f0:38:fb:87:57:ed:2d:87:fc:27:5d:03:
                    dd:0c:ab:e6:32:4c:a6:3b:29:27:76:03:e2:fb:3e:
                    50:de:e9:d1:79:46:1b:e9:7d:91:59:25:2d:b2:52:
                    41:33:e5:82:44:80:54:66:73:ff:f7:a2:d4:e4:8f:
                    1b:05:63:e6:99:40:c7:2d:e9:3d:41:b6:74:5a:60:
                    7e:36:52:cb:88:be:9c:b5:0d:ac:66:35:88:bf:3d:
                    c9:72:95:1f:e2:1c:c8:c1:c1:26:e2:26:75:cd:af:
                    51:ec:5a:68:f3:91:ae:bf:4a:cc:02:f1:c1:88:27:
                    49:2f:1e:48:b7:4b:76:82:fc:60:5f:ef:f3:8e:5c:
                    e1:cc:c3:66:f5:e6:c5:b7:0a:8e:3e:83:9d:9c:ae:
                    dd:08:ba:49:43:93:8d:37:3c:04:84:c4:b6:27:4e:
                    29:3f:5e:e3:6e:f3:ea:7a:ec:e1:5b:f9:37:7f:04:
                    61:30:f6:17:33:f6:a5:42:f9:45:b0:ae:a2:9c:91:
                    a8:0a:18:6f:90:68:eb:32:63:75:bb:81:af:f4:f1:
                    3f:86:8c:0b:45:9f:d5:d1:ea:22:87:b2:2a:77:cf:
                    c5:71
                Exponent: 65537 (0x10001)
        X509v3 extensions:
            X509v3 Basic Constraints: 
                CA:FALSE
            X509v3 Subject Alternative Name: 
                DNS:ziyu0123456789.cn
    Signature Algorithm: sha256WithRSAEncryption
         d2:ef:e9:3f:e0:96:c1:1f:d7:1d:17:91:8c:6d:75:5a:e2:0b:
         ad:8b:2d:b0:b1:ff:f5:26:43:2f:83:ca:76:b6:01:73:11:48:
         e7:0e:45:0b:8a:e0:13:aa:d8:1b:cb:bc:05:9c:24:16:3a:ff:
         bf:4e:f7:5c:cb:8b:8c:84:70:03:9c:38:89:77:4e:39:36:e9:
         33:ff:bb:d5:3a:71:3a:a5:6b:9d:21:f6:de:ef:d5:c3:51:7f:
         ec:9e:53:8f:c4:4f:1a:34:8c:3c:ad:f0:4d:18:22:f1:c8:07:
         36:77:46:42:be:05:7a:66:c5:0e:6c:2e:50:f1:3d:99:7e:20:
         73:49:47:b7:eb:79:d8:4b:1f:2d:7f:03:ab:2c:81:e3:61:33:
         fe:00:9b:62:61:8e:be:32:a2:af:ad:4c:5c:df:9b:00:00:0f:
         48:7f:26:b4:45:52:2f:87:0e:3b:a5:f7:09:4e:7b:5b:0b:6e:
         9a:3c:a0:40:4b:a8:f6:e4:11:29:d3:96:3f:2e:0e:eb:a4:a8:
         b1:d4:5b:34:1b:2a:23:d7:68:3c:48:90:ae:fa:23:e8:78:b6:
         bc:8a:86:7a:ce:4d:41:26:6e:9d:f2:ff:70:9a:66:1f:5d:a4:
         a3:49:4b:41:74:a6:66:b0:97:20:6a:b5:17:2e:5e:e9:c1:f9:
         25:2c:79:5e
-----BEGIN CERTIFICATE-----
MIID6DCCAtCgAwIBAgICAQcwDQYJKoZIhvcNAQELBQAwgaExCzAJBgNVBAYTAkNO
MREwDwYDVQQIDAhaaGVqaWFuZzEfMB0GA1UECgwWR2xvYmFsIEFpeml5dWVyIENB
IEluYzEUMBIGA1UECwwLQWl6aXl1ZXIgQ0ExHzAdBgNVBAMMFkdsb2JhbCBBaXpp
eXVlciBDQSBJbmMxJzAlBgkqhkiG9w0BCQEWGHppeXUwMTIzNDU2Nzg5QGdtYWls
LmNvbTAgFw0xOTA3MjAxOTU2MjJaGA8yMTE5MDYyNjE5NTYyMlowgZwxCzAJBgNV
BAYTAkNOMREwDwYDVQQIDAhaaGVqaWFuZzEfMB0GA1UECgwWR2xvYmFsIEFpeml5
dWVyIENBIEluYzEUMBIGA1UECwwLQWl6aXl1ZXIgQ0ExGjAYBgNVBAMMEXppeXUw
MTIzNDU2Nzg5LmNuMScwJQYJKoZIhvcNAQkBFhh6aXl1MDEyMzQ1Njc4OUBnbWFp
bC5jb20wggEiMA0GCSqGSIb3DQEBAQUAA4IBDwAwggEKAoIBAQDq7t2V/IUMDty9
Dj3Lijzcl9QTPQ8D3gGqCsAsDY3FavA4+4dX7S2H/CddA90Mq+YyTKY7KSd2A+L7
PlDe6dF5RhvpfZFZJS2yUkEz5YJEgFRmc//3otTkjxsFY+aZQMct6T1BtnRaYH42
UsuIvpy1DaxmNYi/PclylR/iHMjBwSbiJnXNr1HsWmjzka6/SswC8cGIJ0kvHki3
S3aC/GBf7/OOXOHMw2b15sW3Co4+g52crt0IuklDk403PASExLYnTik/XuNu8+p6
7OFb+Td/BGEw9hcz9qVC+UWwrqKckagKGG+QaOsyY3W7ga/08T+GjAtFn9XR6iKH
sip3z8VxAgMBAAGjKzApMAkGA1UdEwQCMAAwHAYDVR0RBBUwE4IReml5dTAxMjM0
NTY3ODkuY24wDQYJKoZIhvcNAQELBQADggEBANLv6T/glsEf1x0XkYxtdVriC62L
LbCx//UmQy+Dyna2AXMRSOcORQuK4BOq2BvLvAWcJBY6/79O91zLi4yEcAOcOIl3
Tjk26TP/u9U6cTqla50h9t7v1cNRf+yeU4/ETxo0jDyt8E0YIvHIBzZ3RkK+BXpm
xQ5sLlDxPZl+IHNJR7fredhLHy1/A6ssgeNhM/4Am2Jhjr4yoq+tTFzfmwAAD0h/
JrRFUi+HDjul9wlOe1sLbpo8oEBLqPbkESnTlj8uDuukqLHUWzQbKiPXaDxIkK76
I+h4tryKhnrOTUEmbp3y/3CaZh9dpKNJS0F0pmawlyBqtRcuXunB+SUseV4=
-----END CERTIFICATE-----
Certificate:
    Data:
        Version: 3 (0x2)
        Serial Number: 259 (0x103)
    Signature Algorithm: sha256WithRSAEncryption
        Issuer: C=CN, ST=Zhejiang, O=Global Aiziyuer CA Inc, OU=Root CA, CN=Global Aiziyuer CA Inc/emailAddress=ziyu0123456789@gmail.com
        Validity
            Not Before: Jul 20 19:31:56 2019 GMT
            Not After : Jun 26 19:31:56 2119 GMT
        Subject: C=CN, ST=Zhejiang, O=Global Aiziyuer CA Inc, OU=Aiziyuer CA, CN=Global Aiziyuer CA Inc/emailAddress=ziyu0123456789@gmail.com
        Subject Public Key Info:
            Public Key Algorithm: rsaEncryption
                Public-Key: (2048 bit)
                Modulus:
                    00:d4:1a:d4:0c:c1:d2:92:2e:c0:9e:cb:90:1e:db:
                    49:1a:3d:85:25:dd:6d:95:38:c4:d9:39:4d:ce:92:
                    c0:e5:77:93:dc:ad:f9:23:ff:92:e1:b1:5f:b2:6d:
                    a0:46:07:1e:bd:82:62:4a:4a:b1:cc:52:eb:09:3e:
                    44:59:f0:43:a1:28:66:9c:8d:6f:d5:f2:5c:49:a8:
                    a9:51:63:ed:82:41:12:fc:1f:3f:3f:82:bf:15:3e:
                    d6:7a:b6:e1:47:b7:33:c4:3a:59:08:5d:0a:7e:0a:
                    02:45:c9:1e:0a:69:d5:29:65:b8:39:07:62:04:8f:
                    45:4c:40:a7:d5:75:95:44:15:d0:10:35:f9:30:18:
                    96:88:66:03:15:bd:e9:dc:cf:f9:59:3b:ab:88:8f:
                    79:66:19:5e:04:07:50:b2:a8:f8:de:80:9a:18:e9:
                    53:9e:a7:32:b6:4c:1f:1f:38:95:c0:cf:af:f5:71:
                    24:8f:67:49:c0:fa:14:7b:66:6c:b9:2b:ad:0a:98:
                    b5:4c:a1:ab:fb:db:72:a3:49:aa:2d:ab:9d:b5:1f:
                    4b:d3:e0:b5:93:bf:9f:07:0b:68:b7:32:31:c6:f0:
                    61:b9:60:ae:41:d9:66:35:82:9d:21:29:84:04:9b:
                    9f:37:d6:2e:b5:98:10:03:f8:98:7e:18:59:49:a2:
                    9d:e7
                Exponent: 65537 (0x10001)
        X509v3 extensions:
            X509v3 Basic Constraints: 
                CA:TRUE
    Signature Algorithm: sha256WithRSAEncryption
         a2:b5:0f:0c:ca:c9:1c:5c:fa:ad:bd:21:91:d4:6f:11:13:7e:
         45:73:71:24:29:2e:29:6d:06:b3:ec:7b:34:ba:06:96:78:a2:
         1c:16:45:ae:dc:a9:6c:b4:92:e1:a4:b0:55:36:b0:2e:44:9a:
         48:e1:ae:bb:41:00:50:c6:4b:20:a6:a5:0c:e5:42:f1:08:94:
         55:cc:ce:f8:51:9c:7d:27:a4:b6:f7:eb:ce:d5:23:de:46:ec:
         6a:58:07:e9:ba:17:52:44:83:60:b9:c7:06:7b:84:58:ed:cb:
         86:42:03:03:f9:aa:ab:c3:5d:1c:3c:20:24:40:a0:aa:9f:42:
         1b:b2:90:47:d1:64:b5:26:37:43:da:fc:49:52:94:09:42:60:
         ff:2b:3a:06:a0:ed:23:7f:f7:10:06:ef:9d:ed:e7:c4:4d:69:
         e7:e5:86:fd:db:7a:45:0c:db:72:5a:98:12:3a:52:36:02:5d:
         50:84:58:a1:a9:dd:cb:95:48:21:61:ad:f6:70:64:84:ca:cb:
         c8:a8:73:a5:09:46:4f:19:f2:92:17:ac:05:ab:69:9b:77:f5:
         da:36:60:3a:62:c7:ba:92:81:73:72:a1:e3:d1:70:fa:08:80:
         20:b8:95:41:90:30:a6:d5:73:34:dd:e6:1a:09:4f:20:c2:16:
         13:bf:48:0a
-----BEGIN CERTIFICATE-----
MIIDzjCCAragAwIBAgICAQMwDQYJKoZIhvcNAQELBQAwgZ0xCzAJBgNVBAYTAkNO
MREwDwYDVQQIDAhaaGVqaWFuZzEfMB0GA1UECgwWR2xvYmFsIEFpeml5dWVyIENB
IEluYzEQMA4GA1UECwwHUm9vdCBDQTEfMB0GA1UEAwwWR2xvYmFsIEFpeml5dWVy
IENBIEluYzEnMCUGCSqGSIb3DQEJARYYeml5dTAxMjM0NTY3ODlAZ21haWwuY29t
MCAXDTE5MDcyMDE5MzE1NloYDzIxMTkwNjI2MTkzMTU2WjCBoTELMAkGA1UEBhMC
Q04xETAPBgNVBAgMCFpoZWppYW5nMR8wHQYDVQQKDBZHbG9iYWwgQWl6aXl1ZXIg
Q0EgSW5jMRQwEgYDVQQLDAtBaXppeXVlciBDQTEfMB0GA1UEAwwWR2xvYmFsIEFp
eml5dWVyIENBIEluYzEnMCUGCSqGSIb3DQEJARYYeml5dTAxMjM0NTY3ODlAZ21h
aWwuY29tMIIBIjANBgkqhkiG9w0BAQEFAAOCAQ8AMIIBCgKCAQEA1BrUDMHSki7A
nsuQHttJGj2FJd1tlTjE2TlNzpLA5XeT3K35I/+S4bFfsm2gRgcevYJiSkqxzFLr
CT5EWfBDoShmnI1v1fJcSaipUWPtgkES/B8/P4K/FT7WerbhR7czxDpZCF0KfgoC
RckeCmnVKWW4OQdiBI9FTECn1XWVRBXQEDX5MBiWiGYDFb3p3M/5WTuriI95Zhle
BAdQsqj43oCaGOlTnqcytkwfHziVwM+v9XEkj2dJwPoUe2ZsuSutCpi1TKGr+9ty
o0mqLaudtR9L0+C1k7+fBwtotzIxxvBhuWCuQdlmNYKdISmEBJufN9YutZgQA/iY
fhhZSaKd5wIDAQABoxAwDjAMBgNVHRMEBTADAQH/MA0GCSqGSIb3DQEBCwUAA4IB
AQCitQ8MyskcXPqtvSGR1G8RE35Fc3EkKS4pbQaz7Hs0ugaWeKIcFkWu3KlstJLh
pLBVNrAuRJpI4a67QQBQxksgpqUM5ULxCJRVzM74UZx9J6S29+vO1SPeRuxqWAfp
uhdSRINguccGe4RY7cuGQgMD+aqrw10cPCAkQKCqn0IbspBH0WS1JjdD2vxJUpQJ
QmD/KzoGoO0jf/cQBu+d7efETWnn5Yb923pFDNtyWpgSOlI2Al1QhFihqd3LlUgh
Ya32cGSEysvIqHOlCUZPGfKSF6wFq2mbd/XaNmA6Yse6koFzcqHj0XD6CIAguJVB
kDCm1XM03eYaCU8gwhYTv0gK
-----END CERTIFICATE-----
Certificate:
    Data:
        Version: 3 (0x2)
        Serial Number: 258 (0x102)
    Signature Algorithm: sha256WithRSAEncryption
        Issuer: C=CN, ST=Zhejiang, L=Hangzhou, O=Global Aiziyuer CA Inc, OU=Root CA/emailAddress=ziyu0123456789@gmail.com, CN=Global Aiziyuer CA Inc
        Validity
            Not Before: Jul 20 19:31:29 2019 GMT
            Not After : Jun 26 19:31:29 2119 GMT
        Subject: C=CN, ST=Zhejiang, O=Global Aiziyuer CA Inc, OU=Root CA, CN=Global Aiziyuer CA Inc/emailAddress=ziyu0123456789@gmail.com
        Subject Public Key Info:
            Public Key Algorithm: rsaEncryption
                Public-Key: (2048 bit)
                Modulus:
                    00:d5:2a:60:56:29:53:08:d5:ab:38:ec:7a:bb:45:
                    27:7a:ee:2a:3c:74:5e:13:88:a3:3c:53:31:c3:5e:
                    1b:4d:64:a9:9d:73:1c:0c:86:b9:14:9b:56:95:a7:
                    f9:65:03:f0:0f:9d:a1:07:9f:9c:94:82:2e:73:11:
                    a9:0e:c6:4e:d1:0a:bd:c0:bb:e4:66:fd:5d:20:7c:
                    88:d7:c8:cf:8f:b7:48:34:9e:fa:d8:6d:81:78:e6:
                    2e:16:ec:c1:11:9a:35:a4:35:44:ed:69:99:b6:76:
                    fc:aa:17:f5:40:a5:bc:1c:db:9c:6e:5b:23:0d:99:
                    c2:d1:ac:e0:1b:e4:f9:81:3c:65:b1:8d:f2:89:e9:
                    a7:32:53:ae:00:3c:0d:a6:e4:62:c7:a5:20:b8:b8:
                    d8:e9:0e:21:e7:d9:95:ce:ea:a5:47:f4:39:7f:7e:
                    89:84:7f:21:9a:35:b4:4e:ac:10:4e:2d:e8:48:66:
                    fc:d9:e0:44:ff:8f:a6:38:f5:2b:1d:a1:6e:7e:59:
                    fc:8a:28:8b:b8:3b:3d:fe:46:c4:82:90:7a:5b:d7:
                    50:46:e2:c6:d5:0a:5d:69:11:8a:7c:38:a1:88:24:
                    87:b1:0d:ca:13:63:6e:b2:15:c5:14:8a:a0:c2:1a:
                    bc:b0:86:8d:24:d7:66:8f:a6:8d:04:3d:13:08:b2:
                    7e:8b
                Exponent: 65537 (0x10001)
        X509v3 extensions:
            X509v3 Basic Constraints: 
                CA:TRUE
    Signature Algorithm: sha256WithRSAEncryption
         4e:8a:4b:85:59:08:32:e1:08:54:a4:8f:cf:bf:ce:9b:5e:dc:
         8b:3b:9b:38:18:a3:df:20:60:a4:5d:a6:0d:92:32:47:1a:8e:
         06:96:15:11:33:85:b5:55:3b:cf:fa:ab:a8:51:48:99:d6:a7:
         83:38:46:14:a6:c3:30:f8:8c:f5:65:78:25:7e:a7:25:4a:db:
         e7:cd:8e:52:c3:09:af:56:fb:51:41:c1:27:6a:42:61:64:4a:
         3b:0c:5c:e0:3d:68:2a:ef:a3:fd:01:95:70:32:b3:3b:8a:1d:
         16:92:a7:3c:0f:d3:31:21:da:bf:ee:3b:a8:b4:de:be:5a:02:
         89:e6:e9:c6:8a:58:01:40:af:41:99:94:76:64:e6:f8:2a:4e:
         4a:ef:97:da:42:d8:9b:4d:a1:1d:b6:3d:8c:2d:a5:2f:7f:33:
         58:9c:79:5b:f3:15:a2:af:d4:c8:2c:bf:27:a1:80:81:7d:83:
         cd:85:88:e4:35:bf:b4:9a:a8:2e:a5:f8:06:84:f1:be:e4:85:
         48:45:f8:52:cd:4e:12:dc:3a:18:35:b6:00:3c:bf:7e:c9:f6:
         8e:8e:7e:92:e8:87:d1:53:db:d1:52:5b:85:a8:33:d0:d0:d8:
         6d:55:69:f5:ac:87:87:bd:b2:7b:f8:d8:77:91:6c:cf:e0:99:
         3f:70:7f:a8
-----BEGIN CERTIFICATE-----
MIID3TCCAsWgAwIBAgICAQIwDQYJKoZIhvcNAQELBQAwgbAxCzAJBgNVBAYTAkNO
MREwDwYDVQQIDAhaaGVqaWFuZzERMA8GA1UEBwwISGFuZ3pob3UxHzAdBgNVBAoM
Fkdsb2JhbCBBaXppeXVlciBDQSBJbmMxEDAOBgNVBAsMB1Jvb3QgQ0ExJzAlBgkq
hkiG9w0BCQEWGHppeXUwMTIzNDU2Nzg5QGdtYWlsLmNvbTEfMB0GA1UEAwwWR2xv
YmFsIEFpeml5dWVyIENBIEluYzAgFw0xOTA3MjAxOTMxMjlaGA8yMTE5MDYyNjE5
MzEyOVowgZ0xCzAJBgNVBAYTAkNOMREwDwYDVQQIDAhaaGVqaWFuZzEfMB0GA1UE
CgwWR2xvYmFsIEFpeml5dWVyIENBIEluYzEQMA4GA1UECwwHUm9vdCBDQTEfMB0G
A1UEAwwWR2xvYmFsIEFpeml5dWVyIENBIEluYzEnMCUGCSqGSIb3DQEJARYYeml5
dTAxMjM0NTY3ODlAZ21haWwuY29tMIIBIjANBgkqhkiG9w0BAQEFAAOCAQ8AMIIB
CgKCAQEA1SpgVilTCNWrOOx6u0Uneu4qPHReE4ijPFMxw14bTWSpnXMcDIa5FJtW
laf5ZQPwD52hB5+clIIucxGpDsZO0Qq9wLvkZv1dIHyI18jPj7dINJ762G2BeOYu
FuzBEZo1pDVE7WmZtnb8qhf1QKW8HNucblsjDZnC0azgG+T5gTxlsY3yiemnMlOu
ADwNpuRix6UguLjY6Q4h59mVzuqlR/Q5f36JhH8hmjW0TqwQTi3oSGb82eBE/4+m
OPUrHaFufln8iiiLuDs9/kbEgpB6W9dQRuLG1QpdaRGKfDihiCSHsQ3KE2NushXF
FIqgwhq8sIaNJNdmj6aNBD0TCLJ+iwIDAQABoxAwDjAMBgNVHRMEBTADAQH/MA0G
CSqGSIb3DQEBCwUAA4IBAQBOikuFWQgy4QhUpI/Pv86bXtyLO5s4GKPfIGCkXaYN
kjJHGo4GlhURM4W1VTvP+quoUUiZ1qeDOEYUpsMw+Iz1ZXglfqclStvnzY5Swwmv
VvtRQcEnakJhZEo7DFzgPWgq76P9AZVwMrM7ih0Wkqc8D9MxIdq/7juotN6+WgKJ
5unGilgBQK9BmZR2ZOb4Kk5K75faQtibTaEdtj2MLaUvfzNYnHlb8xWir9TILL8n
oYCBfYPNhYjkNb+0mqgupfgGhPG+5IVIRfhSzU4S3DoYNbYAPL9+yfaOjn6S6IfR
U9vRUluFqDPQ0NhtVWn1rIeHvbJ7+Nh3kWzP4Jk/cH+o
-----END CERTIFICATE-----
